target datalayout = "e-m:e-p270:32:32-p271:32:32-p272:64:64-i64:64-i128:128-f80:128-n8:16:32:64-S128"
target triple = "x86_64-unknown-linux-gnu"

%class.expr_inverter = type { %class.iexpr_inverter.base, %class.ptr_vector }
%class.iexpr_inverter.base = type <{ ptr, ptr, %"class.std::function", %class.ref, i8 }>
%"class.std::function" = type { %"class.std::_Function_base", ptr }
%"class.std::_Function_base" = type { %"union.std::_Any_data", ptr }
%"union.std::_Any_data" = type { %"union.std::_Nocopy_types" }
%"union.std::_Nocopy_types" = type { { i64, i64 } }
%class.ref = type { ptr }
%class.ptr_vector = type { %class.vector }
%class.vector = type { ptr }
%class.iexpr_inverter = type <{ ptr, ptr, %"class.std::function", %class.ref, i8, [7 x i8] }>

; Function Attrs: mustprogress nounwind uwtable
define linkonce_odr hidden noundef i32 @_ZNK6vectorIP14iexpr_inverterLb0EjE4sizeEv(ptr noundef nonnull align 8 dereferenceable(8) %this) #4 comdat align 2 {
entry:
  %retval = alloca i32, align 4
  %this.addr = alloca ptr, align 8
  store ptr %this, ptr %this.addr, align 8
  %this1 = load ptr, ptr %this.addr, align 8
  %m_data = getelementptr inbounds %class.vector, ptr %this1, i32 0, i32 0
  %0 = load ptr, ptr %m_data, align 8
  %cmp = icmp eq ptr %0, null
  br i1 %cmp, label %if.then, label %if.end

if.then:                                          ; preds = %entry
  store i32 0, ptr %retval, align 4
  br label %return

if.end:                                           ; preds = %entry
  %m_data2 = getelementptr inbounds %class.vector, ptr %this1, i32 0, i32 0
  %1 = load ptr, ptr %m_data2, align 8
  %arrayidx = getelementptr inbounds i32, ptr %1, i64 -1
  %2 = load i32, ptr %arrayidx, align 4
  store i32 %2, ptr %retval, align 4
  br label %return

return:                                           ; preds = %if.end, %if.then
  %3 = load i32, ptr %retval, align 4
  ret i32 %3
}

; Function Attrs: mustprogress nounwind uwtable
define linkonce_odr hidden noundef ptr @_ZN6vectorIP14iexpr_inverterLb0EjE3endEv(ptr noundef nonnull align 8 dereferenceable(8) %this) #4 comdat align 2 {
entry:
  %this.addr = alloca ptr, align 8
  store ptr %this, ptr %this.addr, align 8
  %this1 = load ptr, ptr %this.addr, align 8
  %m_data = getelementptr inbounds %class.vector, ptr %this1, i32 0, i32 0
  %0 = load ptr, ptr %m_data, align 8
  %call = call noundef i32 @_ZNK6vectorIP14iexpr_inverterLb0EjE4sizeEv(ptr noundef nonnull align 8 dereferenceable(8) %this1)
  %idx.ext = zext i32 %call to i64
  %add.ptr = getelementptr inbounds ptr, ptr %0, i64 %idx.ext
  ret ptr %add.ptr
}

; Function Attrs: mustprogress nounwind uwtable
define linkonce_odr hidden noundef ptr @_ZN6vectorIP14iexpr_inverterLb0EjE5beginEv(ptr noundef nonnull align 8 dereferenceable(8) %this) #4 comdat align 2 {
entry:
  %this.addr = alloca ptr, align 8
  store ptr %this, ptr %this.addr, align 8
  %this1 = load ptr, ptr %this.addr, align 8
  %m_data = getelementptr inbounds %class.vector, ptr %this1, i32 0, i32 0
  %0 = load ptr, ptr %m_data, align 8
  ret ptr %0
}

; Function Attrs: mustprogress uwtable
define hidden void @_ZN13expr_inverter18set_produce_proofsEb(ptr noundef nonnull align 8 dereferenceable(72) %this, i1 noundef zeroext %pr) unnamed_addr #6 align 2 {
entry:
  %this.addr = alloca ptr, align 8
  %pr.addr = alloca i8, align 1
  %__range1 = alloca ptr, align 8
  %__begin1 = alloca ptr, align 8
  %__end1 = alloca ptr, align 8
  %p = alloca ptr, align 8
  store ptr %this, ptr %this.addr, align 8
  %frombool = zext i1 %pr to i8
  store i8 %frombool, ptr %pr.addr, align 1
  %this1 = load ptr, ptr %this.addr, align 8
  %0 = load i8, ptr %pr.addr, align 1
  %tobool = trunc i8 %0 to i1
  %m_produce_proofs = getelementptr inbounds %class.iexpr_inverter, ptr %this1, i32 0, i32 4
  %frombool2 = zext i1 %tobool to i8
  store i8 %frombool2, ptr %m_produce_proofs, align 8
  %m_inverters = getelementptr inbounds %class.expr_inverter, ptr %this1, i32 0, i32 1
  store ptr %m_inverters, ptr %__range1, align 8
  %1 = load ptr, ptr %__range1, align 8
  %call = call noundef ptr @_ZN6vectorIP14iexpr_inverterLb0EjE5beginEv(ptr noundef nonnull align 8 dereferenceable(8) %1)
  store ptr %call, ptr %__begin1, align 8
  %2 = load ptr, ptr %__range1, align 8
  %call3 = call noundef ptr @_ZN6vectorIP14iexpr_inverterLb0EjE3endEv(ptr noundef nonnull align 8 dereferenceable(8) %2)
  store ptr %call3, ptr %__end1, align 8
  br label %for.cond

for.cond:                                         ; preds = %for.inc, %entry
  %3 = load ptr, ptr %__begin1, align 8
  %4 = load ptr, ptr %__end1, align 8
  %cmp = icmp ne ptr %3, %4
  br i1 %cmp, label %for.body, label %for.end

for.body:                                         ; preds = %for.cond
  %5 = load ptr, ptr %__begin1, align 8
  %6 = load ptr, ptr %5, align 8
  store ptr %6, ptr %p, align 8
  %7 = load ptr, ptr %p, align 8
  %tobool4 = icmp ne ptr %7, null
  br i1 %tobool4, label %if.then, label %if.end

if.then:                                          ; preds = %for.body
  %8 = load ptr, ptr %p, align 8
  %9 = load i8, ptr %pr.addr, align 1
  %tobool5 = trunc i8 %9 to i1
  %vtable = load ptr, ptr %8, align 8
  %vfn = getelementptr inbounds ptr, ptr %vtable, i64 4
  %10 = load ptr, ptr %vfn, align 8
  call void %10(ptr noundef nonnull align 8 dereferenceable(57) %8, i1 noundef zeroext %tobool5)
  br label %if.end

if.end:                                           ; preds = %if.then, %for.body
  br label %for.inc

for.inc:                                          ; preds = %if.end
  %11 = load ptr, ptr %__begin1, align 8
  %incdec.ptr = getelementptr inbounds ptr, ptr %11, i32 1
  store ptr %incdec.ptr, ptr %__begin1, align 8
  br label %for.cond

for.end:                                          ; preds = %for.cond
  ret void
}