; Function Attrs: mustprogress uwtable
define hidden void @_ZN13expr_inverter18set_produce_proofsEb(ptr nocapture noundef nonnull align 8 dereferenceable(72) %this, i1 noundef zeroext %pr) unnamed_addr #6 align 2 {
entry:
  %frombool = zext i1 %pr to i8
  %m_produce_proofs = getelementptr inbounds i8, ptr %this, i64 56
  store i8 %frombool, ptr %m_produce_proofs, align 8
  %m_inverters = getelementptr inbounds i8, ptr %this, i64 64
  %0 = load ptr, ptr %m_inverters, align 8
  %cmp.i.i = icmp eq ptr %0, null
  br i1 %cmp.i.i, label %for.end, label %_ZN6vectorIP14iexpr_inverterLb0EjE3endEv.exit

_ZN6vectorIP14iexpr_inverterLb0EjE3endEv.exit:    ; preds = %entry
  %arrayidx.i.i = getelementptr inbounds i8, ptr %0, i64 -4
  %1 = load i32, ptr %arrayidx.i.i, align 4
  %2 = zext i32 %1 to i64
  %add.ptr.i = getelementptr inbounds ptr, ptr %0, i64 %2
  %cmp.not6 = icmp eq i32 %1, 0
  br i1 %cmp.not6, label %for.end, label %for.body

for.body:                                         ; preds = %_ZN6vectorIP14iexpr_inverterLb0EjE3endEv.exit, %for.inc
  %__begin1.07 = phi ptr [ %incdec.ptr, %for.inc ], [ %0, %_ZN6vectorIP14iexpr_inverterLb0EjE3endEv.exit ]
  %3 = load ptr, ptr %__begin1.07, align 8
  %tobool4.not = icmp eq ptr %3, null
  br i1 %tobool4.not, label %for.inc, label %if.then

if.then:                                          ; preds = %for.body
  %vtable = load ptr, ptr %3, align 8
  %vfn = getelementptr inbounds i8, ptr %vtable, i64 32
  %4 = load ptr, ptr %vfn, align 8
  tail call void %4(ptr noundef nonnull align 8 dereferenceable(57) %3, i1 noundef zeroext %pr)
  br label %for.inc

for.inc:                                          ; preds = %for.body, %if.then
  %incdec.ptr = getelementptr inbounds i8, ptr %__begin1.07, i64 8
  %cmp.not = icmp eq ptr %incdec.ptr, %add.ptr.i
  br i1 %cmp.not, label %for.end, label %for.body

for.end:                                          ; preds = %for.inc, %entry, %_ZN6vectorIP14iexpr_inverterLb0EjE3endEv.exit
  ret void
}